target datalayout = "e-m:e-p270:32:32-p271:32:32-p272:64:64-i64:64-i128:128-f80:128-n8:16:32:64-S128"
target triple = "x86_64-pc-linux-gnu"

%struct.mbedtls_ecp_keypair = type { %struct.mbedtls_ecp_group, %struct.mbedtls_mpi, %struct.mbedtls_ecp_point }
%struct.mbedtls_ecp_group = type { i32, %struct.mbedtls_mpi, %struct.mbedtls_mpi, %struct.mbedtls_mpi, %struct.mbedtls_ecp_point, %struct.mbedtls_mpi, i64, i64, i32, ptr, ptr, ptr, ptr, ptr, i64 }
%struct.mbedtls_mpi = type { ptr, i16, i16 }
%struct.mbedtls_ecp_point = type { %struct.mbedtls_mpi, %struct.mbedtls_mpi, %struct.mbedtls_mpi }
%struct.psa_key_attributes_s = type { i16, i16, i32, %struct.psa_key_policy_s, i32 }
%struct.psa_key_policy_s = type { i32, i32, i32 }

; Function Attrs: nounwind uwtable
define hidden i32 @mbedtls_psa_ecp_generate_key(ptr noundef %0, ptr noundef %1, i64 noundef %2, ptr noundef %3) #0 {
  %5 = alloca i32, align 4
  %6 = alloca ptr, align 8
  %7 = alloca ptr, align 8
  %8 = alloca i64, align 8
  %9 = alloca ptr, align 8
  %10 = alloca i32, align 4
  %11 = alloca i32, align 4
  %12 = alloca i8, align 1
  %13 = alloca i32, align 4
  %14 = alloca ptr, align 8
  %15 = alloca %struct.mbedtls_ecp_keypair, align 8
  %16 = alloca i32, align 4
  store ptr %0, ptr %6, align 8, !tbaa !28
  store ptr %1, ptr %7, align 8, !tbaa !9
  store i64 %2, ptr %8, align 8, !tbaa !7
  store ptr %3, ptr %9, align 8, !tbaa !27
  call void @llvm.lifetime.start.p0(i64 4, ptr %10) #7
  store i32 -151, ptr %10, align 4, !tbaa !15
  call void @llvm.lifetime.start.p0(i64 4, ptr %11) #7
  store i32 -110, ptr %11, align 4, !tbaa !15
  call void @llvm.lifetime.start.p0(i64 1, ptr %12) #7
  %17 = load ptr, ptr %6, align 8, !tbaa !28
  %18 = getelementptr inbounds nuw %struct.psa_key_attributes_s, ptr %17, i32 0, i32 0
  %19 = load i16, ptr %18, align 4, !tbaa !30
  %20 = zext i16 %19 to i32
  %21 = and i32 %20, -12289
  %22 = and i32 %21, -256
  %23 = icmp eq i32 %22, 16640
  br i1 %23, label %24, label %30

24:                                               ; preds = %4
  %25 = load ptr, ptr %6, align 8, !tbaa !28
  %26 = getelementptr inbounds nuw %struct.psa_key_attributes_s, ptr %25, i32 0, i32 0
  %27 = load i16, ptr %26, align 4, !tbaa !30
  %28 = zext i16 %27 to i32
  %29 = and i32 %28, 255
  br label %31

30:                                               ; preds = %4
  br label %31

31:                                               ; preds = %30, %24
  %32 = phi i32 [ %29, %24 ], [ 0, %30 ]
  %33 = trunc i32 %32 to i8
  store i8 %33, ptr %12, align 1, !tbaa !26
  call void @llvm.lifetime.start.p0(i64 4, ptr %13) #7
  %34 = load i8, ptr %12, align 1, !tbaa !26
  %35 = load ptr, ptr %6, align 8, !tbaa !28
  %36 = getelementptr inbounds nuw %struct.psa_key_attributes_s, ptr %35, i32 0, i32 1
  %37 = load i16, ptr %36, align 2, !tbaa !33
  %38 = zext i16 %37 to i64
  %39 = call i32 @mbedtls_ecc_group_from_psa(i8 noundef zeroext %34, i64 noundef %38)
  store i32 %39, ptr %13, align 4, !tbaa !15
  call void @llvm.lifetime.start.p0(i64 8, ptr %14) #7
  %40 = load i32, ptr %13, align 4, !tbaa !15
  %41 = call ptr @mbedtls_ecp_curve_info_from_grp_id(i32 noundef %40)
  store ptr %41, ptr %14, align 8, !tbaa !35
  call void @llvm.lifetime.start.p0(i64 256, ptr %15) #7
  %42 = load i32, ptr %13, align 4, !tbaa !15
  %43 = icmp eq i32 %42, 0
  br i1 %43, label %47, label %44

44:                                               ; preds = %31
  %45 = load ptr, ptr %14, align 8, !tbaa !35
  %46 = icmp eq ptr %45, null
  br i1 %46, label %47, label %48

47:                                               ; preds = %44, %31
  store i32 -134, ptr %5, align 4
  store i32 1, ptr %16, align 4
  br label %63

48:                                               ; preds = %44
  call void @mbedtls_ecp_keypair_init(ptr noundef %15)
  %49 = load i32, ptr %13, align 4, !tbaa !15
  %50 = call i32 @mbedtls_ecp_gen_key(i32 noundef %49, ptr noundef %15, ptr noundef @mbedtls_psa_get_random, ptr noundef null)
  store i32 %50, ptr %11, align 4, !tbaa !15
  %51 = load i32, ptr %11, align 4, !tbaa !15
  %52 = icmp ne i32 %51, 0
  br i1 %52, label %53, label %56

53:                                               ; preds = %48
  call void @mbedtls_ecp_keypair_free(ptr noundef %15)
  %54 = load i32, ptr %11, align 4, !tbaa !15
  %55 = call i32 @mbedtls_to_psa_error(i32 noundef %54)
  store i32 %55, ptr %5, align 4
  store i32 1, ptr %16, align 4
  br label %63

56:                                               ; preds = %48
  %57 = load ptr, ptr %9, align 8, !tbaa !27
  %58 = load ptr, ptr %7, align 8, !tbaa !9
  %59 = load i64, ptr %8, align 8, !tbaa !7
  %60 = call i32 @mbedtls_ecp_write_key_ext(ptr noundef %15, ptr noundef %57, ptr noundef %58, i64 noundef %59)
  %61 = call i32 @mbedtls_to_psa_error(i32 noundef %60)
  store i32 %61, ptr %10, align 4, !tbaa !15
  call void @mbedtls_ecp_keypair_free(ptr noundef %15)
  %62 = load i32, ptr %10, align 4, !tbaa !15
  store i32 %62, ptr %5, align 4
  store i32 1, ptr %16, align 4
  br label %63

63:                                               ; preds = %56, %53, %47
  call void @llvm.lifetime.end.p0(i64 256, ptr %15) #7
  call void @llvm.lifetime.end.p0(i64 8, ptr %14) #7
  call void @llvm.lifetime.end.p0(i64 4, ptr %13) #7
  call void @llvm.lifetime.end.p0(i64 1, ptr %12) #7
  call void @llvm.lifetime.end.p0(i64 4, ptr %11) #7
  call void @llvm.lifetime.end.p0(i64 4, ptr %10) #7
  %64 = load i32, ptr %5, align 4
  ret i32 %64
}