; Function Attrs: nounwind uwtable
define hidden i32 @mbedtls_psa_ecp_generate_key(ptr noundef readonly captures(none) %0, ptr noundef %1, i64 noundef %2, ptr noundef %3) local_unnamed_addr #0 {
  %5 = alloca %struct.mbedtls_ecp_keypair, align 8
  %6 = load i16, ptr %0, align 4, !tbaa !18
  %7 = and i16 %6, -12544
  %8 = icmp eq i16 %7, 16640
  %9 = trunc i16 %6 to i8
  %spec.select = select i1 %8, i8 %9, i8 0
  %10 = getelementptr inbounds nuw i8, ptr %0, i64 2
  %11 = load i16, ptr %10, align 2, !tbaa !21
  %12 = zext i16 %11 to i64
  %13 = tail call i32 @mbedtls_ecc_group_from_psa(i8 noundef zeroext %spec.select, i64 noundef %12) #7
  %14 = tail call ptr @mbedtls_ecp_curve_info_from_grp_id(i32 noundef %13) #7
  call void @llvm.lifetime.start.p0(i64 256, ptr nonnull %5) #7
  %15 = icmp eq i32 %13, 0
  %16 = icmp eq ptr %14, null
  %or.cond = select i1 %15, i1 true, i1 %16
  br i1 %or.cond, label %24, label %17

17:                                               ; preds = %4
  call void @mbedtls_ecp_keypair_init(ptr noundef nonnull %5) #7
  %18 = call i32 @mbedtls_ecp_gen_key(i32 noundef %13, ptr noundef nonnull %5, ptr noundef nonnull @mbedtls_psa_get_random, ptr noundef null) #7
  %.not = icmp eq i32 %18, 0
  br i1 %.not, label %21, label %19

19:                                               ; preds = %17
  call void @mbedtls_ecp_keypair_free(ptr noundef nonnull %5) #7
  %20 = call i32 @mbedtls_to_psa_error(i32 noundef %18) #7
  br label %24

21:                                               ; preds = %17
  %22 = call i32 @mbedtls_ecp_write_key_ext(ptr noundef nonnull %5, ptr noundef %3, ptr noundef %1, i64 noundef %2) #7
  %23 = call i32 @mbedtls_to_psa_error(i32 noundef %22) #7
  call void @mbedtls_ecp_keypair_free(ptr noundef nonnull %5) #7
  br label %24

24:                                               ; preds = %4, %21, %19
  %.0 = phi i32 [ %20, %19 ], [ %23, %21 ], [ -134, %4 ]
  call void @llvm.lifetime.end.p0(i64 256, ptr nonnull %5) #7
  ret i32 %.0
}